; ModuleID = '13/1109.c'
source_filename = "13/1109.c"
target datalayout = "e-m:e-p270:32:32-p271:32:32-p272:64:64-i64:64-f80:128-n8:16:32:64-S128"
target triple = "x86_64-pc-linux-gnu"

@.str = private unnamed_addr constant [3 x i8] c"%d\00", align 1
@.str.1 = private unnamed_addr constant [4 x i8] c" %d\00", align 1

; Function Attrs: noinline nounwind uwtable
define dso_local i32 @main() #0 {
  %1 = alloca i32, align 4
  %2 = alloca i32, align 4
  %3 = alloca i32, align 4
  %4 = alloca i32, align 4
  %5 = alloca i32, align 4
  %6 = alloca [20000 x i32], align 16
  store i32 0, i32* %1, align 4
  %7 = call i32 (i8*, ...) @__isoc99_scanf(i8* getelementptr inbounds ([3 x i8], [3 x i8]* @.str, i64 0, i64 0), i32* %3)
  store i32 0, i32* %2, align 4
  br label %8

8:                                                ; preds = %17, %0
  %9 = load i32, i32* %2, align 4
  %10 = load i32, i32* %3, align 4
  %11 = icmp slt i32 %9, %10
  br i1 %11, label %12, label %20

12:                                               ; preds = %8
  %13 = load i32, i32* %2, align 4
  %14 = sext i32 %13 to i64
  %15 = getelementptr inbounds [20000 x i32], [20000 x i32]* %6, i64 0, i64 %14
  %16 = call i32 (i8*, ...) @__isoc99_scanf(i8* getelementptr inbounds ([3 x i8], [3 x i8]* @.str, i64 0, i64 0), i32* %15)
  br label %17

17:                                               ; preds = %12
  %18 = load i32, i32* %2, align 4
  %19 = add nsw i32 %18, 1
  store i32 %19, i32* %2, align 4
  br label %8

20:                                               ; preds = %8
  %21 = getelementptr inbounds [20000 x i32], [20000 x i32]* %6, i64 0, i64 0
  %22 = load i32, i32* %21, align 16
  %23 = call i32 (i8*, ...) @printf(i8* getelementptr inbounds ([3 x i8], [3 x i8]* @.str, i64 0, i64 0), i32 %22)
  store i32 1, i32* %2, align 4
  br label %24

24:                                               ; preds = %62, %20
  %25 = load i32, i32* %2, align 4
  %26 = load i32, i32* %3, align 4
  %27 = icmp slt i32 %25, %26
  br i1 %27, label %28, label %65

28:                                               ; preds = %24
  store i32 0, i32* %5, align 4
  store i32 0, i32* %4, align 4
  br label %29

29:                                               ; preds = %50, %28
  %30 = load i32, i32* %2, align 4
  %31 = sext i32 %30 to i64
  %32 = getelementptr inbounds [20000 x i32], [20000 x i32]* %6, i64 0, i64 %31
  %33 = load i32, i32* %32, align 4
  %34 = load i32, i32* %5, align 4
  %35 = sext i32 %34 to i64
  %36 = getelementptr inbounds [20000 x i32], [20000 x i32]* %6, i64 0, i64 %35
  %37 = load i32, i32* %36, align 4
  %38 = icmp eq i32 %33, %37
  br i1 %38, label %39, label %40

39:                                               ; preds = %29
  store i32 1, i32* %4, align 4
  br label %40

40:                                               ; preds = %39, %29
  %41 = load i32, i32* %5, align 4
  %42 = add nsw i32 %41, 1
  store i32 %42, i32* %5, align 4
  br label %43

43:                                               ; preds = %40
  %44 = load i32, i32* %4, align 4
  %45 = icmp eq i32 %44, 0
  br i1 %45, label %46, label %50

46:                                               ; preds = %43
  %47 = load i32, i32* %5, align 4
  %48 = load i32, i32* %2, align 4
  %49 = icmp slt i32 %47, %48
  br label %50

50:                                               ; preds = %46, %43
  %51 = phi i1 [ false, %43 ], [ %49, %46 ]
  br i1 %51, label %29, label %52

52:                                               ; preds = %50
  %53 = load i32, i32* %4, align 4
  %54 = icmp eq i32 %53, 0
  br i1 %54, label %55, label %61

55:                                               ; preds = %52
  %56 = load i32, i32* %2, align 4
  %57 = sext i32 %56 to i64
  %58 = getelementptr inbounds [20000 x i32], [20000 x i32]* %6, i64 0, i64 %57
  %59 = load i32, i32* %58, align 4
  %60 = call i32 (i8*, ...) @printf(i8* getelementptr inbounds ([4 x i8], [4 x i8]* @.str.1, i64 0, i64 0), i32 %59)
  br label %61

61:                                               ; preds = %55, %52
  br label %62

62:                                               ; preds = %61
  %63 = load i32, i32* %2, align 4
  %64 = add nsw i32 %63, 1
  store i32 %64, i32* %2, align 4
  br label %24

65:                                               ; preds = %24
  ret i32 0
}

declare dso_local i32 @__isoc99_scanf(i8*, ...) #1

declare dso_local i32 @printf(i8*, ...) #1


!llvm.module.flags = !{!0}
!llvm.ident = !{!1}

!0 = !{i32 1, !"wchar_size", i32 4}
!1 = !{!"clang version 10.0.0-4ubuntu1 "}
